; Function Attrs: mustprogress nofree norecurse nosync nounwind willreturn memory(readwrite, inaccessiblemem: none) uwtable
define void @_ZN12b2WheelJoint13SetMotorSpeedEf(ptr nocapture noundef nonnull align 8 dereferenceable(308) %this, float noundef %speed) local_unnamed_addr #10 align 2 {
entry:
  %m_motorSpeed = getelementptr inbounds i8, ptr %this, i64 196
  %0 = load float, ptr %m_motorSpeed, align 4
  %cmp = fcmp une float %0, %speed
  br i1 %cmp, label %if.then, label %if.end

if.then:                                          ; preds = %entry
  %m_bodyA = getelementptr inbounds i8, ptr %this, i64 96
  %1 = load ptr, ptr %m_bodyA, align 8
  %2 = load i32, ptr %1, align 8
  %cmp.i = icmp eq i32 %2, 0
  br i1 %cmp.i, label %_ZN6b2Body8SetAwakeEb.exit, label %if.end.i

if.end.i:                                         ; preds = %if.then
  %m_flags.i = getelementptr inbounds i8, ptr %1, i64 4
  %3 = load i16, ptr %m_flags.i, align 4
  %m_sleepTime.i = getelementptr inbounds i8, ptr %1, i64 172
  %4 = or i16 %3, 2
  store i16 %4, ptr %m_flags.i, align 4
  store float 0.000000e+00, ptr %m_sleepTime.i, align 4
  br label %_ZN6b2Body8SetAwakeEb.exit

_ZN6b2Body8SetAwakeEb.exit:                       ; preds = %if.then, %if.end.i
  %m_bodyB = getelementptr inbounds i8, ptr %this, i64 104
  %5 = load ptr, ptr %m_bodyB, align 8
  %6 = load i32, ptr %5, align 8
  %cmp.i2 = icmp eq i32 %6, 0
  br i1 %cmp.i2, label %_ZN6b2Body8SetAwakeEb.exit6, label %if.end.i3

if.end.i3:                                        ; preds = %_ZN6b2Body8SetAwakeEb.exit
  %m_flags.i4 = getelementptr inbounds i8, ptr %5, i64 4
  %7 = load i16, ptr %m_flags.i4, align 4
  %m_sleepTime.i5 = getelementptr inbounds i8, ptr %5, i64 172
  %8 = or i16 %7, 2
  store i16 %8, ptr %m_flags.i4, align 4
  store float 0.000000e+00, ptr %m_sleepTime.i5, align 4
  br label %_ZN6b2Body8SetAwakeEb.exit6

_ZN6b2Body8SetAwakeEb.exit6:                      ; preds = %_ZN6b2Body8SetAwakeEb.exit, %if.end.i3
  store float %speed, ptr %m_motorSpeed, align 4
  br label %if.end

if.end:                                           ; preds = %_ZN6b2Body8SetAwakeEb.exit6, %entry
  ret void
}